target datalayout = "e-m:e-p270:32:32-p271:32:32-p272:64:64-i64:64-i128:128-f80:128-n8:16:32:64-S128"
target triple = "x86_64-pc-linux-gnu"

%"struct.arrow::(anonymous namespace)::DebugState" = type { %"class.std::mutex", %"class.std::function.50" }
%"class.std::mutex" = type { %"class.std::__mutex_base" }
%"class.std::__mutex_base" = type { %union.pthread_mutex_t }
%union.pthread_mutex_t = type { %struct.__pthread_mutex_s }
%struct.__pthread_mutex_s = type { i32, i32, i32, i32, i32, i16, i16, %struct.__pthread_internal_list }
%struct.__pthread_internal_list = type { ptr, ptr }
%"class.std::function.50" = type { %"class.std::_Function_base", ptr }
%"class.std::_Function_base" = type { %"union.std::_Any_data", ptr }
%"union.std::_Any_data" = type { %"union.std::_Nocopy_types" }
%"union.std::_Nocopy_types" = type { { i64, i64 } }
%"class.std::lock_guard" = type { ptr }

; Function Attrs: inlinehint mustprogress nounwind uwtable
define internal noundef i32 @_ZL18__gthread_active_pv() #8 {
  ret i32 1
}

; Function Attrs: inlinehint mustprogress nounwind uwtable
define internal noundef i32 @_ZL22__gthread_mutex_unlockP15pthread_mutex_t(ptr noundef %0) #8 {
  %2 = alloca i32, align 4
  %3 = alloca ptr, align 8
  store ptr %0, ptr %3, align 8, !tbaa !73
  %4 = call noundef i32 @_ZL18__gthread_active_pv()
  %5 = icmp ne i32 %4, 0
  br i1 %5, label %6, label %9

6:                                                ; preds = %1
  %7 = load ptr, ptr %3, align 8, !tbaa !73
  %8 = call i32 @pthread_mutex_unlock(ptr noundef %7) #3
  store i32 %8, ptr %2, align 4
  br label %10

9:                                                ; preds = %1
  store i32 0, ptr %2, align 4
  br label %10

10:                                               ; preds = %9, %6
  %11 = load i32, ptr %2, align 4
  ret i32 %11
}

; Function Attrs: inlinehint mustprogress uwtable
define internal noundef i32 @_ZL20__gthread_mutex_lockP15pthread_mutex_t(ptr noundef %0) #9 {
  %2 = alloca i32, align 4
  %3 = alloca ptr, align 8
  store ptr %0, ptr %3, align 8, !tbaa !73
  %4 = call noundef i32 @_ZL18__gthread_active_pv()
  %5 = icmp ne i32 %4, 0
  br i1 %5, label %6, label %9

6:                                                ; preds = %1
  %7 = load ptr, ptr %3, align 8, !tbaa !73
  %8 = call i32 @pthread_mutex_lock(ptr noundef %7) #3
  store i32 %8, ptr %2, align 4
  br label %10

9:                                                ; preds = %1
  store i32 0, ptr %2, align 4
  br label %10

10:                                               ; preds = %9, %6
  %11 = load i32, ptr %2, align 4
  ret i32 %11
}

; Function Attrs: mustprogress uwtable
define linkonce_odr void @_ZNSt5mutex6unlockEv(ptr noundef nonnull align 8 dereferenceable(40) %0) #5 comdat align 2 {
  %2 = alloca ptr, align 8
  store ptr %0, ptr %2, align 8, !tbaa !175
  %3 = load ptr, ptr %2, align 8
  %4 = getelementptr inbounds nuw %"class.std::__mutex_base", ptr %3, i32 0, i32 0
  %5 = call noundef i32 @_ZL22__gthread_mutex_unlockP15pthread_mutex_t(ptr noundef %4)
  ret void
}

; Function Attrs: noinline noreturn nounwind uwtable
define linkonce_odr hidden void @__clang_call_terminate(ptr noundef %0) #13 comdat {
  %2 = call ptr @__cxa_begin_catch(ptr %0) #3
  call void @_ZSt9terminatev() #23
  unreachable
}

; Function Attrs: mustprogress nounwind uwtable
define linkonce_odr noundef zeroext i1 @_ZNKSt14_Function_base8_M_emptyEv(ptr noundef nonnull align 8 dereferenceable(24) %0) #4 comdat align 2 {
  %2 = alloca ptr, align 8
  store ptr %0, ptr %2, align 8, !tbaa !173
  %3 = load ptr, ptr %2, align 8
  %4 = getelementptr inbounds nuw %"class.std::_Function_base", ptr %3, i32 0, i32 1
  %5 = load ptr, ptr %4, align 8, !tbaa !172
  %6 = icmp ne ptr %5, null
  %7 = xor i1 %6, true
  ret i1 %7
}

; Function Attrs: mustprogress uwtable
define linkonce_odr void @_ZNSt5mutex4lockEv(ptr noundef nonnull align 8 dereferenceable(40) %0) #5 comdat align 2 {
  %2 = alloca ptr, align 8
  %3 = alloca i32, align 4
  store ptr %0, ptr %2, align 8, !tbaa !175
  %4 = load ptr, ptr %2, align 8
  call void @llvm.lifetime.start.p0(i64 4, ptr %3) #3
  %5 = getelementptr inbounds nuw %"class.std::__mutex_base", ptr %4, i32 0, i32 0
  %6 = call noundef i32 @_ZL20__gthread_mutex_lockP15pthread_mutex_t(ptr noundef %5)
  store i32 %6, ptr %3, align 4, !tbaa !39
  %7 = load i32, ptr %3, align 4, !tbaa !39
  %8 = icmp ne i32 %7, 0
  br i1 %8, label %9, label %11

9:                                                ; preds = %1
  %10 = load i32, ptr %3, align 4, !tbaa !39
  call void @_ZSt20__throw_system_errori(i32 noundef %10) #25
  unreachable

11:                                               ; preds = %1
  call void @llvm.lifetime.end.p0(i64 4, ptr %3) #3
  ret void
}

; Function Attrs: mustprogress nounwind uwtable
define linkonce_odr void @_ZNSt10lock_guardISt5mutexED2Ev(ptr noundef nonnull align 8 dereferenceable(8) %0) unnamed_addr #4 comdat align 2 personality ptr @__gxx_personality_v0 {
  %2 = alloca ptr, align 8
  store ptr %0, ptr %2, align 8, !tbaa !184
  %3 = load ptr, ptr %2, align 8
  %4 = getelementptr inbounds nuw %"class.std::lock_guard", ptr %3, i32 0, i32 0
  %5 = load ptr, ptr %4, align 8, !tbaa !186
  invoke void @_ZNSt5mutex6unlockEv(ptr noundef nonnull align 8 dereferenceable(40) %5)
          to label %6 unwind label %7

6:                                                ; preds = %1
  ret void

7:                                                ; preds = %1
  %8 = landingpad { ptr, i32 }
          catch ptr null
  %9 = extractvalue { ptr, i32 } %8, 0
  call void @__clang_call_terminate(ptr %9) #23
  unreachable
}

; Function Attrs: mustprogress uwtable
define linkonce_odr void @_ZNKSt8functionIFvPhlRKN5arrow6StatusEEEclES0_lS4_(ptr noundef nonnull align 8 dereferenceable(32) %0, ptr noundef %1, i64 noundef %2, ptr noundef nonnull align 8 dereferenceable(8) %3) #5 comdat align 2 {
  %5 = alloca ptr, align 8
  %6 = alloca ptr, align 8
  %7 = alloca i64, align 8
  %8 = alloca ptr, align 8
  store ptr %0, ptr %5, align 8, !tbaa !167
  store ptr %1, ptr %6, align 8, !tbaa !10
  store i64 %2, ptr %7, align 8, !tbaa !68
  store ptr %3, ptr %8, align 8, !tbaa !43
  %9 = load ptr, ptr %5, align 8
  %10 = call noundef zeroext i1 @_ZNKSt14_Function_base8_M_emptyEv(ptr noundef nonnull align 8 dereferenceable(24) %9)
  br i1 %10, label %11, label %12

11:                                               ; preds = %4
  call void @_ZSt25__throw_bad_function_callv() #25
  unreachable

12:                                               ; preds = %4
  %13 = getelementptr inbounds nuw %"class.std::function.50", ptr %9, i32 0, i32 1
  %14 = load ptr, ptr %13, align 8, !tbaa !169
  %15 = getelementptr inbounds nuw %"class.std::_Function_base", ptr %9, i32 0, i32 0
  %16 = load ptr, ptr %8, align 8, !tbaa !43
  call void %14(ptr noundef nonnull align 8 dereferenceable(16) %15, ptr noundef nonnull align 8 dereferenceable(8) %6, ptr noundef nonnull align 8 dereferenceable(8) %7, ptr noundef nonnull align 8 dereferenceable(8) %16)
  ret void
}

; Function Attrs: mustprogress nounwind uwtable
define linkonce_odr noundef zeroext i1 @_ZNKSt8functionIFvPhlRKN5arrow6StatusEEEcvbEv(ptr noundef nonnull align 8 dereferenceable(32) %0) #4 comdat align 2 personality ptr @__gxx_personality_v0 {
  %2 = alloca ptr, align 8
  store ptr %0, ptr %2, align 8, !tbaa !167
  %3 = load ptr, ptr %2, align 8
  %4 = invoke noundef zeroext i1 @_ZNKSt14_Function_base8_M_emptyEv(ptr noundef nonnull align 8 dereferenceable(24) %3)
          to label %5 unwind label %7

5:                                                ; preds = %1
  %6 = xor i1 %4, true
  ret i1 %6

7:                                                ; preds = %1
  %8 = landingpad { ptr, i32 }
          catch ptr null
  %9 = extractvalue { ptr, i32 } %8, 0
  call void @__clang_call_terminate(ptr %9) #23
  unreachable
}

; Function Attrs: mustprogress uwtable
define linkonce_odr void @_ZNSt10lock_guardISt5mutexEC2ERS0_(ptr noundef nonnull align 8 dereferenceable(8) %0, ptr noundef nonnull align 8 dereferenceable(40) %1) unnamed_addr #5 comdat align 2 {
  %3 = alloca ptr, align 8
  %4 = alloca ptr, align 8
  store ptr %0, ptr %3, align 8, !tbaa !184
  store ptr %1, ptr %4, align 8, !tbaa !175
  %5 = load ptr, ptr %3, align 8
  %6 = getelementptr inbounds nuw %"class.std::lock_guard", ptr %5, i32 0, i32 0
  %7 = load ptr, ptr %4, align 8, !tbaa !175
  store ptr %7, ptr %6, align 8, !tbaa !175
  %8 = getelementptr inbounds nuw %"class.std::lock_guard", ptr %5, i32 0, i32 0
  %9 = load ptr, ptr %8, align 8, !tbaa !186
  call void @_ZNSt5mutex4lockEv(ptr noundef nonnull align 8 dereferenceable(40) %9)
  ret void
}

; Function Attrs: mustprogress uwtable
define internal void @_ZN5arrow12_GLOBAL__N_110DebugState6InvokeEPhlRKNS_6StatusE(ptr noundef nonnull align 8 dereferenceable(72) %0, ptr noundef %1, i64 noundef %2, ptr noundef nonnull align 8 dereferenceable(8) %3) #5 align 2 personality ptr @__gxx_personality_v0 {
  %5 = alloca ptr, align 8
  %6 = alloca ptr, align 8
  %7 = alloca i64, align 8
  %8 = alloca ptr, align 8
  %9 = alloca %"class.std::lock_guard", align 8
  %10 = alloca ptr, align 8
  %11 = alloca i32, align 4
  store ptr %0, ptr %5, align 8, !tbaa !165
  store ptr %1, ptr %6, align 8, !tbaa !10
  store i64 %2, ptr %7, align 8, !tbaa !68
  store ptr %3, ptr %8, align 8, !tbaa !43
  %12 = load ptr, ptr %5, align 8
  call void @llvm.lifetime.start.p0(i64 8, ptr %9) #3
  %13 = getelementptr inbounds nuw %"struct.arrow::(anonymous namespace)::DebugState", ptr %12, i32 0, i32 0
  call void @_ZNSt10lock_guardISt5mutexEC2ERS0_(ptr noundef nonnull align 8 dereferenceable(8) %9, ptr noundef nonnull align 8 dereferenceable(40) %13)
  %14 = getelementptr inbounds nuw %"struct.arrow::(anonymous namespace)::DebugState", ptr %12, i32 0, i32 1
  %15 = call noundef zeroext i1 @_ZNKSt8functionIFvPhlRKN5arrow6StatusEEEcvbEv(ptr noundef nonnull align 8 dereferenceable(32) %14) #3
  br i1 %15, label %16, label %26

16:                                               ; preds = %4
  %17 = getelementptr inbounds nuw %"struct.arrow::(anonymous namespace)::DebugState", ptr %12, i32 0, i32 1
  %18 = load ptr, ptr %6, align 8, !tbaa !10
  %19 = load i64, ptr %7, align 8, !tbaa !68
  %20 = load ptr, ptr %8, align 8, !tbaa !43
  invoke void @_ZNKSt8functionIFvPhlRKN5arrow6StatusEEEclES0_lS4_(ptr noundef nonnull align 8 dereferenceable(32) %17, ptr noundef %18, i64 noundef %19, ptr noundef nonnull align 8 dereferenceable(8) %20)
          to label %21 unwind label %22

21:                                               ; preds = %16
  br label %26

22:                                               ; preds = %16
  %23 = landingpad { ptr, i32 }
          cleanup
  %24 = extractvalue { ptr, i32 } %23, 0
  store ptr %24, ptr %10, align 8
  %25 = extractvalue { ptr, i32 } %23, 1
  store i32 %25, ptr %11, align 4
  call void @_ZNSt10lock_guardISt5mutexED2Ev(ptr noundef nonnull align 8 dereferenceable(8) %9) #3
  call void @llvm.lifetime.end.p0(i64 8, ptr %9) #3
  br label %27

26:                                               ; preds = %21, %4
  call void @_ZNSt10lock_guardISt5mutexED2Ev(ptr noundef nonnull align 8 dereferenceable(8) %9) #3
  call void @llvm.lifetime.end.p0(i64 8, ptr %9) #3
  ret void

27:                                               ; preds = %22
  %28 = load ptr, ptr %10, align 8
  %29 = load i32, ptr %11, align 4
  %30 = insertvalue { ptr, i32 } poison, ptr %28, 0
  %31 = insertvalue { ptr, i32 } %30, i32 %29, 1
  resume { ptr, i32 } %31
}