; Function Attrs: mustprogress uwtable
define internal fastcc void @_ZN5arrow12_GLOBAL__N_110DebugState6InvokeEPhlRKNS_6StatusE(ptr noundef %0, i64 noundef %1, ptr noundef nonnull align 8 dereferenceable(8) %2) unnamed_addr #4 align 2 personality ptr @__gxx_personality_v0 {
  %4 = alloca ptr, align 8
  %5 = alloca i64, align 8
  %6 = tail call noundef i32 @pthread_mutex_lock(ptr noundef nonnull align 8 dereferenceable(40) @_ZZN5arrow12_GLOBAL__N_110DebugState8InstanceEvE8instance) #32
  %.not.i.i = icmp eq i32 %6, 0
  br i1 %.not.i.i, label %_ZNSt10lock_guardISt5mutexEC2ERS0_.exit, label %7

7:                                                ; preds = %3
  tail call void @_ZSt20__throw_system_errori(i32 noundef %6) #36
  unreachable

_ZNSt10lock_guardISt5mutexEC2ERS0_.exit:          ; preds = %3
  %8 = load ptr, ptr getelementptr inbounds nuw (i8, ptr @_ZZN5arrow12_GLOBAL__N_110DebugState8InstanceEvE8instance, i64 56), align 8, !tbaa !291
  %.not.i.i5.not = icmp eq ptr %8, null
  br i1 %.not.i.i5.not, label %14, label %9

9:                                                ; preds = %_ZNSt10lock_guardISt5mutexEC2ERS0_.exit
  call void @llvm.lifetime.start.p0(i64 8, ptr nonnull %4)
  call void @llvm.lifetime.start.p0(i64 8, ptr nonnull %5)
  store ptr %0, ptr %4, align 8, !tbaa !106
  store i64 %1, ptr %5, align 8, !tbaa !108
  %10 = load ptr, ptr getelementptr inbounds nuw (i8, ptr @_ZZN5arrow12_GLOBAL__N_110DebugState8InstanceEvE8instance, i64 64), align 8, !tbaa !288
  invoke void %10(ptr noundef nonnull align 8 dereferenceable(32) getelementptr inbounds nuw (i8, ptr @_ZZN5arrow12_GLOBAL__N_110DebugState8InstanceEvE8instance, i64 40), ptr noundef nonnull align 8 dereferenceable(8) %4, ptr noundef nonnull align 8 dereferenceable(8) %5, ptr noundef nonnull align 8 dereferenceable(8) %2)
          to label %_ZNKSt8functionIFvPhlRKN5arrow6StatusEEEclES0_lS4_.exit unwind label %11

_ZNKSt8functionIFvPhlRKN5arrow6StatusEEEclES0_lS4_.exit: ; preds = %9
  call void @llvm.lifetime.end.p0(i64 8, ptr nonnull %4)
  call void @llvm.lifetime.end.p0(i64 8, ptr nonnull %5)
  br label %14

11:                                               ; preds = %9
  %12 = landingpad { ptr, i32 }
          cleanup
  %13 = call noundef i32 @pthread_mutex_unlock(ptr noundef nonnull align 8 dereferenceable(40) @_ZZN5arrow12_GLOBAL__N_110DebugState8InstanceEvE8instance) #32
  resume { ptr, i32 } %12

14:                                               ; preds = %_ZNKSt8functionIFvPhlRKN5arrow6StatusEEEclES0_lS4_.exit, %_ZNSt10lock_guardISt5mutexEC2ERS0_.exit
  %15 = call noundef i32 @pthread_mutex_unlock(ptr noundef nonnull align 8 dereferenceable(40) @_ZZN5arrow12_GLOBAL__N_110DebugState8InstanceEvE8instance) #32
  ret void
}